target datalayout = "e-m:e-p270:32:32-p271:32:32-p272:64:64-i64:64-i128:128-f80:128-n8:16:32:64-S128"
target triple = "x86_64-unknown-linux-gnu"

%"class.QuantLib::AbcdMathFunction" = type { double, double, double, double, %"class.std::vector", %"class.std::vector", double, double, double, double, double, double, double }
%"class.std::vector" = type { %"struct.std::_Vector_base" }
%"struct.std::_Vector_base" = type { %"struct.std::_Vector_base<double, std::allocator<double>>::_Vector_impl" }
%"struct.std::_Vector_base<double, std::allocator<double>>::_Vector_impl" = type { %"struct.std::_Vector_base<double, std::allocator<double>>::_Vector_impl_data" }
%"struct.std::_Vector_base<double, std::allocator<double>>::_Vector_impl_data" = type { ptr, ptr, ptr }

; Function Attrs: inlinehint mustprogress nounwind uwtable
define linkonce_odr noundef double @_ZNK8QuantLib16AbcdMathFunctionclEd(ptr noundef nonnull align 8 dereferenceable(136) %this, double noundef %t) #5 comdat align 2 {
entry:
  %this.addr = alloca ptr, align 8
  %t.addr = alloca double, align 8
  store ptr %this, ptr %this.addr, align 8, !tbaa !3
  store double %t, ptr %t.addr, align 8, !tbaa !7
  %this1 = load ptr, ptr %this.addr, align 8
  %0 = load double, ptr %t.addr, align 8, !tbaa !7
  %cmp = fcmp olt double %0, 0.000000e+00
  br i1 %cmp, label %cond.true, label %cond.false

cond.true:                                        ; preds = %entry
  br label %cond.end

cond.false:                                       ; preds = %entry
  %a_ = getelementptr inbounds nuw %"class.QuantLib::AbcdMathFunction", ptr %this1, i32 0, i32 0
  %1 = load double, ptr %a_, align 8, !tbaa !13
  %b_ = getelementptr inbounds nuw %"class.QuantLib::AbcdMathFunction", ptr %this1, i32 0, i32 1
  %2 = load double, ptr %b_, align 8, !tbaa !19
  %3 = load double, ptr %t.addr, align 8, !tbaa !7
  %4 = call double @llvm.fmuladd.f64(double %2, double %3, double %1)
  %c_ = getelementptr inbounds nuw %"class.QuantLib::AbcdMathFunction", ptr %this1, i32 0, i32 2
  %5 = load double, ptr %c_, align 8, !tbaa !20
  %fneg = fneg double %5
  %6 = load double, ptr %t.addr, align 8, !tbaa !7
  %mul = fmul double %fneg, %6
  %call = call double @exp(double noundef %mul) #16, !tbaa !9
  %d_ = getelementptr inbounds nuw %"class.QuantLib::AbcdMathFunction", ptr %this1, i32 0, i32 3
  %7 = load double, ptr %d_, align 8, !tbaa !21
  %8 = call double @llvm.fmuladd.f64(double %4, double %call, double %7)
  br label %cond.end

cond.end:                                         ; preds = %cond.false, %cond.true
  %cond = phi double [ 0.000000e+00, %cond.true ], [ %8, %cond.false ]
  ret double %cond
}

; Function Attrs: mustprogress uwtable
define noundef double @_ZNK8QuantLib12AbcdFunction23instantaneousCovarianceEddd(ptr noundef nonnull align 8 dereferenceable(136) %this, double noundef %u, double noundef %T, double noundef %S) #0 align 2 {
entry:
  %this.addr = alloca ptr, align 8
  %u.addr = alloca double, align 8
  %T.addr = alloca double, align 8
  %S.addr = alloca double, align 8
  store ptr %this, ptr %this.addr, align 8, !tbaa !3
  store double %u, ptr %u.addr, align 8, !tbaa !7
  store double %T, ptr %T.addr, align 8, !tbaa !7
  store double %S, ptr %S.addr, align 8, !tbaa !7
  %this1 = load ptr, ptr %this.addr, align 8
  %0 = load double, ptr %T.addr, align 8, !tbaa !7
  %1 = load double, ptr %u.addr, align 8, !tbaa !7
  %sub = fsub double %0, %1
  %call = call noundef double @_ZNK8QuantLib16AbcdMathFunctionclEd(ptr noundef nonnull align 8 dereferenceable(136) %this1, double noundef %sub)
  %2 = load double, ptr %S.addr, align 8, !tbaa !7
  %3 = load double, ptr %u.addr, align 8, !tbaa !7
  %sub2 = fsub double %2, %3
  %call3 = call noundef double @_ZNK8QuantLib16AbcdMathFunctionclEd(ptr noundef nonnull align 8 dereferenceable(136) %this1, double noundef %sub2)
  %mul = fmul double %call, %call3
  ret double %mul
}