; Function Attrs: mustprogress nofree nounwind willreturn memory(write, argmem: readwrite) uwtable
define noundef double @_ZNK8QuantLib12AbcdFunction23instantaneousCovarianceEddd(ptr nocapture noundef nonnull readonly align 8 dereferenceable(136) %this, double noundef %u, double noundef %T, double noundef %S) local_unnamed_addr #2 align 2 {
entry:
  %sub = fsub double %T, %u
  %cmp.i = fcmp olt double %sub, 0.000000e+00
  br i1 %cmp.i, label %_ZNK8QuantLib16AbcdMathFunctionclEd.exit, label %cond.false.i

cond.false.i:                                     ; preds = %entry
  %0 = load double, ptr %this, align 8, !tbaa !3
  %b_.i = getelementptr inbounds nuw i8, ptr %this, i64 8
  %1 = load double, ptr %b_.i, align 8, !tbaa !13
  %2 = tail call double @llvm.fmuladd.f64(double %1, double %sub, double %0)
  %c_.i = getelementptr inbounds nuw i8, ptr %this, i64 16
  %3 = load double, ptr %c_.i, align 8, !tbaa !14
  %fneg.i = fneg double %3
  %mul.i = fmul double %sub, %fneg.i
  %call.i = tail call double @exp(double noundef %mul.i) #19, !tbaa !15
  %d_.i = getelementptr inbounds nuw i8, ptr %this, i64 24
  %4 = load double, ptr %d_.i, align 8, !tbaa !17
  %5 = tail call double @llvm.fmuladd.f64(double %2, double %call.i, double %4)
  br label %_ZNK8QuantLib16AbcdMathFunctionclEd.exit

_ZNK8QuantLib16AbcdMathFunctionclEd.exit:         ; preds = %entry, %cond.false.i
  %cond.i = phi double [ %5, %cond.false.i ], [ 0.000000e+00, %entry ]
  %sub2 = fsub double %S, %u
  %cmp.i2 = fcmp olt double %sub2, 0.000000e+00
  br i1 %cmp.i2, label %_ZNK8QuantLib16AbcdMathFunctionclEd.exit11, label %cond.false.i3

cond.false.i3:                                    ; preds = %_ZNK8QuantLib16AbcdMathFunctionclEd.exit
  %6 = load double, ptr %this, align 8, !tbaa !3
  %b_.i4 = getelementptr inbounds nuw i8, ptr %this, i64 8
  %7 = load double, ptr %b_.i4, align 8, !tbaa !13
  %8 = tail call double @llvm.fmuladd.f64(double %7, double %sub2, double %6)
  %c_.i5 = getelementptr inbounds nuw i8, ptr %this, i64 16
  %9 = load double, ptr %c_.i5, align 8, !tbaa !14
  %fneg.i6 = fneg double %9
  %mul.i7 = fmul double %sub2, %fneg.i6
  %call.i8 = tail call double @exp(double noundef %mul.i7) #19, !tbaa !15
  %d_.i9 = getelementptr inbounds nuw i8, ptr %this, i64 24
  %10 = load double, ptr %d_.i9, align 8, !tbaa !17
  %11 = tail call double @llvm.fmuladd.f64(double %8, double %call.i8, double %10)
  br label %_ZNK8QuantLib16AbcdMathFunctionclEd.exit11

_ZNK8QuantLib16AbcdMathFunctionclEd.exit11:       ; preds = %_ZNK8QuantLib16AbcdMathFunctionclEd.exit, %cond.false.i3
  %cond.i10 = phi double [ %11, %cond.false.i3 ], [ 0.000000e+00, %_ZNK8QuantLib16AbcdMathFunctionclEd.exit ]
  %mul = fmul double %cond.i, %cond.i10
  ret double %mul
}